target datalayout = "e-m:e-p270:32:32-p271:32:32-p272:64:64-i64:64-i128:128-f80:128-n8:16:32:64-S128"
target triple = "x86_64-pc-linux-gnu"

%struct.PLwdatum = type { ptr, ptr, i8, ptr }
%struct.PLpgSQL_datum = type { i32, i32 }

@.str.2 = private unnamed_addr constant [11 x i8] c"plpgsql-18\00", align 1
@.str.4 = private unnamed_addr constant [10 x i8] c"pl_gram.y\00", align 1
@.str.57 = private unnamed_addr constant [13 x i8] c"syntax error\00", align 1
@.str.118 = private unnamed_addr constant [58 x i8] c"record variable cannot be part of multiple-item INTO list\00", align 1
@__func__.read_into_target = private unnamed_addr constant [17 x i8] c"read_into_target\00", align 1

; Function Attrs: nounwind uwtable
define internal void @current_token_is_not_variable(i32 noundef %0, ptr noundef %1, ptr noundef %2, ptr noundef %3) #0 {
  %5 = alloca i32, align 4
  %6 = alloca ptr, align 8
  %7 = alloca ptr, align 8
  %8 = alloca ptr, align 8
  store i32 %0, ptr %5, align 4
  store ptr %1, ptr %6, align 8
  store ptr %2, ptr %7, align 8
  store ptr %3, ptr %8, align 8
  %9 = load i32, ptr %5, align 4
  %10 = icmp eq i32 %9, 275
  br i1 %10, label %11, label %16

11:                                               ; preds = %4
  %12 = load ptr, ptr %6, align 8
  %13 = load ptr, ptr %7, align 8
  %14 = load i32, ptr %13, align 4
  %15 = load ptr, ptr %8, align 8
  call void @word_is_not_variable(ptr noundef %12, i32 noundef %14, ptr noundef %15)
  br label %28

16:                                               ; preds = %4
  %17 = load i32, ptr %5, align 4
  %18 = icmp eq i32 %17, 276
  br i1 %18, label %19, label %24

19:                                               ; preds = %16
  %20 = load ptr, ptr %6, align 8
  %21 = load ptr, ptr %7, align 8
  %22 = load i32, ptr %21, align 4
  %23 = load ptr, ptr %8, align 8
  call void @cword_is_not_variable(ptr noundef %20, i32 noundef %22, ptr noundef %23)
  br label %27

24:                                               ; preds = %16
  %25 = load ptr, ptr %7, align 8
  %26 = load ptr, ptr %8, align 8
  call void @plpgsql_yyerror(ptr noundef %25, ptr noundef null, ptr noundef %26, ptr noundef @.str.57) #13
  unreachable

27:                                               ; preds = %19
  br label %28

28:                                               ; preds = %27, %11
  ret void
}

; Function Attrs: nounwind uwtable
define internal ptr @NameOfDatum(ptr noundef %0) #0 {
  %2 = alloca ptr, align 8
  %3 = alloca ptr, align 8
  store ptr %0, ptr %3, align 8
  %4 = load ptr, ptr %3, align 8
  %5 = getelementptr inbounds nuw %struct.PLwdatum, ptr %4, i32 0, i32 1
  %6 = load ptr, ptr %5, align 8
  %7 = icmp ne ptr %6, null
  br i1 %7, label %8, label %12

8:                                                ; preds = %1
  %9 = load ptr, ptr %3, align 8
  %10 = getelementptr inbounds nuw %struct.PLwdatum, ptr %9, i32 0, i32 1
  %11 = load ptr, ptr %10, align 8
  store ptr %11, ptr %2, align 8
  br label %17

12:                                               ; preds = %1
  %13 = load ptr, ptr %3, align 8
  %14 = getelementptr inbounds nuw %struct.PLwdatum, ptr %13, i32 0, i32 3
  %15 = load ptr, ptr %14, align 8
  %16 = call ptr @NameListToString(ptr noundef %15)
  store ptr %16, ptr %2, align 8
  br label %17

17:                                               ; preds = %12, %8
  %18 = load ptr, ptr %2, align 8
  ret ptr %18
}

; Function Attrs: nounwind uwtable
define internal void @read_into_target(ptr noundef %0, ptr noundef %1, ptr noundef %2, ptr noundef %3, ptr noundef %4) #0 {
  %6 = alloca ptr, align 8
  %7 = alloca ptr, align 8
  %8 = alloca ptr, align 8
  %9 = alloca ptr, align 8
  %10 = alloca ptr, align 8
  %11 = alloca i32, align 4
  store ptr %0, ptr %6, align 8
  store ptr %1, ptr %7, align 8
  store ptr %2, ptr %8, align 8
  store ptr %3, ptr %9, align 8
  store ptr %4, ptr %10, align 8
  call void @llvm.lifetime.start.p0(i64 4, ptr %11) #10
  %12 = load ptr, ptr %6, align 8
  store ptr null, ptr %12, align 8
  %13 = load ptr, ptr %7, align 8
  %14 = icmp ne ptr %13, null
  br i1 %14, label %15, label %17

15:                                               ; preds = %5
  %16 = load ptr, ptr %7, align 8
  store i8 0, ptr %16, align 1
  br label %17

17:                                               ; preds = %15, %5
  %18 = load ptr, ptr %8, align 8
  %19 = load ptr, ptr %9, align 8
  %20 = load ptr, ptr %10, align 8
  %21 = call i32 @plpgsql_yylex(ptr noundef %18, ptr noundef %19, ptr noundef %20)
  store i32 %21, ptr %11, align 4
  %22 = load ptr, ptr %7, align 8
  %23 = icmp ne ptr %22, null
  br i1 %23, label %24, label %33

24:                                               ; preds = %17
  %25 = load i32, ptr %11, align 4
  %26 = icmp eq i32 %25, 373
  br i1 %26, label %27, label %33

27:                                               ; preds = %24
  %28 = load ptr, ptr %7, align 8
  store i8 1, ptr %28, align 1
  %29 = load ptr, ptr %8, align 8
  %30 = load ptr, ptr %9, align 8
  %31 = load ptr, ptr %10, align 8
  %32 = call i32 @plpgsql_yylex(ptr noundef %29, ptr noundef %30, ptr noundef %31)
  store i32 %32, ptr %11, align 4
  br label %33

33:                                               ; preds = %27, %24, %17
  %34 = load i32, ptr %11, align 4
  switch i32 %34, label %100 [
    i32 277, label %35
  ]

35:                                               ; preds = %33
  %36 = load ptr, ptr %8, align 8
  %37 = getelementptr inbounds nuw %struct.PLwdatum, ptr %36, i32 0, i32 0
  %38 = load ptr, ptr %37, align 8
  %39 = getelementptr inbounds nuw %struct.PLpgSQL_datum, ptr %38, i32 0, i32 0
  %40 = load i32, ptr %39, align 4
  %41 = icmp eq i32 %40, 1
  br i1 %41, label %49, label %42

42:                                               ; preds = %35
  %43 = load ptr, ptr %8, align 8
  %44 = getelementptr inbounds nuw %struct.PLwdatum, ptr %43, i32 0, i32 0
  %45 = load ptr, ptr %44, align 8
  %46 = getelementptr inbounds nuw %struct.PLpgSQL_datum, ptr %45, i32 0, i32 0
  %47 = load i32, ptr %46, align 4
  %48 = icmp eq i32 %47, 2
  br i1 %48, label %49, label %86

49:                                               ; preds = %42, %35
  %50 = load ptr, ptr %8, align 8
  %51 = getelementptr inbounds nuw %struct.PLwdatum, ptr %50, i32 0, i32 0
  %52 = load ptr, ptr %51, align 8
  %53 = load ptr, ptr %9, align 8
  %54 = load i32, ptr %53, align 4
  %55 = load ptr, ptr %10, align 8
  call void @check_assignable(ptr noundef %52, i32 noundef %54, ptr noundef %55)
  %56 = load ptr, ptr %8, align 8
  %57 = getelementptr inbounds nuw %struct.PLwdatum, ptr %56, i32 0, i32 0
  %58 = load ptr, ptr %57, align 8
  %59 = load ptr, ptr %6, align 8
  store ptr %58, ptr %59, align 8
  %60 = load ptr, ptr %8, align 8
  %61 = load ptr, ptr %9, align 8
  %62 = load ptr, ptr %10, align 8
  %63 = call i32 @plpgsql_yylex(ptr noundef %60, ptr noundef %61, ptr noundef %62)
  store i32 %63, ptr %11, align 4
  %64 = icmp eq i32 %63, 44
  br i1 %64, label %65, label %81

65:                                               ; preds = %49
  br label %66

66:                                               ; preds = %65
  br i1 true, label %67, label %69

67:                                               ; preds = %66
  %68 = call zeroext i1 @errstart_cold(i32 noundef 21, ptr noundef @.str.2) #12
  br i1 %68, label %71, label %78

69:                                               ; preds = %66
  %70 = call zeroext i1 @errstart(i32 noundef 21, ptr noundef @.str.2)
  br i1 %70, label %71, label %78

71:                                               ; preds = %69, %67
  %72 = call i32 @errcode(i32 noundef 16801924)
  %73 = call i32 (ptr, ...) @errmsg(ptr noundef @.str.118)
  %74 = load ptr, ptr %9, align 8
  %75 = load i32, ptr %74, align 4
  %76 = load ptr, ptr %10, align 8
  %77 = call i32 @plpgsql_scanner_errposition(i32 noundef %75, ptr noundef %76)
  call void @errfinish(ptr noundef @.str.4, i32 noundef 3626, ptr noundef @__func__.read_into_target)
  br label %78

78:                                               ; preds = %71, %69, %67
  unreachable

79:                                               ; No predecessors!
  br label %80

80:                                               ; preds = %79
  br label %81

81:                                               ; preds = %80, %49
  %82 = load i32, ptr %11, align 4
  %83 = load ptr, ptr %8, align 8
  %84 = load ptr, ptr %9, align 8
  %85 = load ptr, ptr %10, align 8
  call void @plpgsql_push_back_token(i32 noundef %82, ptr noundef %83, ptr noundef %84, ptr noundef %85)
  br label %99

86:                                               ; preds = %42
  %87 = load ptr, ptr %8, align 8
  %88 = call ptr @NameOfDatum(ptr noundef %87)
  %89 = load ptr, ptr %8, align 8
  %90 = getelementptr inbounds nuw %struct.PLwdatum, ptr %89, i32 0, i32 0
  %91 = load ptr, ptr %90, align 8
  %92 = load ptr, ptr %9, align 8
  %93 = load i32, ptr %92, align 4
  %94 = load ptr, ptr %8, align 8
  %95 = load ptr, ptr %9, align 8
  %96 = load ptr, ptr %10, align 8
  %97 = call ptr @read_into_scalar_list(ptr noundef %88, ptr noundef %91, i32 noundef %93, ptr noundef %94, ptr noundef %95, ptr noundef %96)
  %98 = load ptr, ptr %6, align 8
  store ptr %97, ptr %98, align 8
  br label %99

99:                                               ; preds = %86, %81
  br label %105

100:                                              ; preds = %33
  %101 = load i32, ptr %11, align 4
  %102 = load ptr, ptr %8, align 8
  %103 = load ptr, ptr %9, align 8
  %104 = load ptr, ptr %10, align 8
  call void @current_token_is_not_variable(i32 noundef %101, ptr noundef %102, ptr noundef %103, ptr noundef %104)
  br label %105

105:                                              ; preds = %100, %99
  call void @llvm.lifetime.end.p0(i64 4, ptr %11) #10
  ret void
}