; Function Attrs: nounwind uwtable
define internal fastcc void @read_into_target(ptr noundef writeonly captures(none) initializes((0, 8)) %0, ptr noundef writeonly captures(address_is_null) %1, ptr noundef nonnull %2, ptr noundef nonnull %3, ptr noundef %4) unnamed_addr #0 {
  store ptr null, ptr %0, align 8
  %.not = icmp eq ptr %1, null
  br i1 %.not, label %.sink.split, label %6

6:                                                ; preds = %5
  store i8 0, ptr %1, align 1
  %7 = tail call i32 @plpgsql_yylex(ptr noundef nonnull %2, ptr noundef nonnull %3, ptr noundef %4) #12
  %8 = icmp eq i32 %7, 373
  br i1 %8, label %9, label %11

9:                                                ; preds = %6
  store i8 1, ptr %1, align 1
  br label %.sink.split

.sink.split:                                      ; preds = %5, %9
  %10 = tail call i32 @plpgsql_yylex(ptr noundef nonnull %2, ptr noundef nonnull %3, ptr noundef %4) #12
  br label %11

11:                                               ; preds = %.sink.split, %6
  %.0 = phi i32 [ %7, %6 ], [ %10, %.sink.split ]
  switch i32 %.0, label %41 [
    i32 277, label %12
    i32 275, label %37
    i32 276, label %39
  ]

12:                                               ; preds = %11
  %13 = load ptr, ptr %2, align 8
  %14 = load i32, ptr %13, align 4
  %.off = add i32 %14, -1
  %switch = icmp ult i32 %.off, 2
  br i1 %switch, label %15, label %27

15:                                               ; preds = %12
  %16 = load i32, ptr %3, align 4
  tail call fastcc void @check_assignable(ptr noundef nonnull %13, i32 noundef %16, ptr noundef %4)
  %17 = load ptr, ptr %2, align 8
  store ptr %17, ptr %0, align 8
  %18 = tail call i32 @plpgsql_yylex(ptr noundef nonnull %2, ptr noundef nonnull %3, ptr noundef %4) #12
  %19 = icmp eq i32 %18, 44
  br i1 %19, label %20, label %26

20:                                               ; preds = %15
  %21 = tail call zeroext i1 @errstart_cold(i32 noundef 21, ptr noundef nonnull @.str.2) #14
  tail call void @llvm.assume(i1 %21)
  %22 = tail call i32 @errcode(i32 noundef 16801924) #12
  %23 = tail call i32 (ptr, ...) @errmsg(ptr noundef nonnull @.str.118) #12
  %24 = load i32, ptr %3, align 4
  %25 = tail call i32 @plpgsql_scanner_errposition(i32 noundef %24, ptr noundef %4) #12
  tail call void @errfinish(ptr noundef nonnull @.str.4, i32 noundef 3626, ptr noundef nonnull @__func__.read_into_target) #12
  unreachable

26:                                               ; preds = %15
  tail call void @plpgsql_push_back_token(i32 noundef %18, ptr noundef nonnull %2, ptr noundef nonnull %3, ptr noundef %4) #12
  br label %42

27:                                               ; preds = %12
  %28 = getelementptr inbounds nuw i8, ptr %2, i64 8
  %29 = load ptr, ptr %28, align 8
  %.not.i = icmp eq ptr %29, null
  br i1 %.not.i, label %30, label %NameOfDatum.exit

30:                                               ; preds = %27
  %31 = getelementptr inbounds nuw i8, ptr %2, i64 24
  %32 = load ptr, ptr %31, align 8
  %33 = tail call ptr @NameListToString(ptr noundef %32) #12
  %.pre = load ptr, ptr %2, align 8
  br label %NameOfDatum.exit

NameOfDatum.exit:                                 ; preds = %27, %30
  %34 = phi ptr [ %.pre, %30 ], [ %13, %27 ]
  %.0.i = phi ptr [ %33, %30 ], [ %29, %27 ]
  %35 = load i32, ptr %3, align 4
  %36 = tail call fastcc ptr @read_into_scalar_list(ptr noundef %.0.i, ptr noundef %34, i32 noundef %35, ptr noundef %2, ptr noundef %3, ptr noundef %4)
  store ptr %36, ptr %0, align 8
  br label %42

37:                                               ; preds = %11
  %38 = load i32, ptr %3, align 4
  tail call fastcc void @word_is_not_variable(ptr noundef nonnull readonly %2, i32 noundef %38, ptr noundef %4)
  unreachable

39:                                               ; preds = %11
  %40 = load i32, ptr %3, align 4
  tail call fastcc void @cword_is_not_variable(ptr noundef nonnull readonly %2, i32 noundef %40, ptr noundef %4)
  unreachable

41:                                               ; preds = %11
  tail call void @plpgsql_yyerror(ptr noundef nonnull %3, ptr noundef null, ptr noundef %4, ptr noundef nonnull @.str.57) #15
  unreachable

42:                                               ; preds = %26, %NameOfDatum.exit
  ret void
}